; Function Attrs: nofree nounwind uwtable
define internal fastcc void @zend_dump_var_set(ptr nocapture noundef readonly %0, ptr noundef %1, ptr nocapture noundef readonly %2) unnamed_addr #3 {
  %4 = load ptr, ptr @stderr, align 8
  %5 = tail call i32 (ptr, ptr, ...) @fprintf(ptr noundef %4, ptr noundef nonnull @.str.207, ptr noundef %1) #8
  %6 = getelementptr inbounds i8, ptr %0, i64 80
  %7 = getelementptr inbounds i8, ptr %0, i64 72
  %8 = load i32, ptr %6, align 8
  %9 = load i32, ptr %7, align 8
  %10 = sub i32 0, %8
  %.not13 = icmp eq i32 %9, %10
  br i1 %.not13, label %._crit_edge, label %.lr.ph

.lr.ph:                                           ; preds = %3
  %11 = getelementptr inbounds i8, ptr %0, i64 112
  br label %12

12:                                               ; preds = %.lr.ph, %zend_dump_var.exit
  %13 = phi i32 [ %8, %.lr.ph ], [ %39, %zend_dump_var.exit ]
  %.012 = phi i32 [ 0, %.lr.ph ], [ %38, %zend_dump_var.exit ]
  %.0911 = phi i8 [ 1, %.lr.ph ], [ %.2, %zend_dump_var.exit ]
  %14 = zext i32 %.012 to i64
  %15 = lshr i64 %14, 6
  %16 = getelementptr inbounds i64, ptr %2, i64 %15
  %17 = load i64, ptr %16, align 8
  %18 = and i64 %14, 63
  %19 = shl nuw i64 1, %18
  %20 = and i64 %17, %19
  %.not10 = icmp eq i64 %20, 0
  br i1 %.not10, label %zend_dump_var.exit, label %21

21:                                               ; preds = %12
  %22 = and i8 %.0911, 1
  %.not = icmp eq i8 %22, 0
  br i1 %.not, label %23, label %26

23:                                               ; preds = %21
  %24 = load ptr, ptr @stderr, align 8
  %25 = tail call i64 @fwrite(ptr nonnull @.str, i64 2, i64 1, ptr %24) #7
  %.pre = load i32, ptr %6, align 8
  br label %26

26:                                               ; preds = %21, %23
  %27 = phi i32 [ %.pre, %23 ], [ %13, %21 ]
  %.1 = phi i8 [ %.0911, %23 ], [ 0, %21 ]
  %28 = icmp sgt i32 %27, %.012
  %29 = load ptr, ptr @stderr, align 8
  br i1 %28, label %30, label %.thread.i

30:                                               ; preds = %26
  %31 = load ptr, ptr %11, align 8
  %32 = sext i32 %.012 to i64
  %33 = getelementptr inbounds ptr, ptr %31, i64 %32
  %34 = load ptr, ptr %33, align 8
  %35 = getelementptr inbounds i8, ptr %34, i64 24
  %36 = tail call i32 (ptr, ptr, ...) @fprintf(ptr noundef %29, ptr noundef nonnull @.str.13, i32 noundef %.012, ptr noundef nonnull %35) #8
  br label %zend_dump_var.exit

.thread.i:                                        ; preds = %26
  %37 = tail call i32 (ptr, ptr, ...) @fprintf(ptr noundef %29, ptr noundef nonnull @.str.16, i32 noundef %.012) #8
  br label %zend_dump_var.exit

zend_dump_var.exit:                               ; preds = %.thread.i, %30, %12
  %.2 = phi i8 [ %.0911, %12 ], [ %.1, %30 ], [ %.1, %.thread.i ]
  %38 = add nuw i32 %.012, 1
  %39 = load i32, ptr %6, align 8
  %40 = load i32, ptr %7, align 8
  %41 = add i32 %40, %39
  %42 = icmp ult i32 %38, %41
  br i1 %42, label %12, label %._crit_edge

._crit_edge:                                      ; preds = %zend_dump_var.exit, %3
  %43 = load ptr, ptr @stderr, align 8
  %44 = tail call i64 @fwrite(ptr nonnull @.str.120, i64 2, i64 1, ptr %43) #7
  ret void
}